; Function Attrs: mustprogress uwtable
define hidden noundef zeroext i1 @_ZN18OpenImageIO_v2_6_03pvt17TextureSystemImpl11environmentENS_7ustringERNS_15TextureOptBatchEmPKfS6_S6_iPfS7_S7_(ptr noundef nonnull align 8 dereferenceable(184) %this, ptr nocapture noundef readonly %filename, ptr nocapture noundef nonnull readonly align 64 dereferenceable(512) %options, i64 noundef %mask, ptr nocapture noundef readonly %R, ptr nocapture noundef readonly %dRdx, ptr nocapture noundef readonly %dRdy, i32 noundef %nchannels, ptr nocapture noundef writeonly %result, ptr noundef %dresultds, ptr nocapture noundef writeonly %dresultdt) unnamed_addr #7 align 2 personality ptr @__gxx_personality_v0 {
entry:
  %agg.tmp.i.i = alloca %"class.OpenImageIO_v2_6_0::ustring", align 8
  %m_imagecache.i = getelementptr inbounds i8, ptr %this, i64 8
  %0 = load ptr, ptr %m_imagecache.i, align 8
  %call.i = tail call noundef ptr @_ZN18OpenImageIO_v2_6_03pvt14ImageCacheImpl18get_perthread_infoEPNS0_23ImageCachePerThreadInfoE(ptr noundef nonnull align 64 dereferenceable(25280) %0, ptr noundef null)
  %1 = load ptr, ptr %filename, align 8
  %tobool.not.i = icmp eq ptr %call.i, null
  br i1 %tobool.not.i, label %cond.false.i, label %cond.end.i

cond.false.i:                                     ; preds = %entry
  %2 = load ptr, ptr %m_imagecache.i, align 8
  %call.i34 = tail call noundef ptr @_ZN18OpenImageIO_v2_6_03pvt14ImageCacheImpl18get_perthread_infoEPNS0_23ImageCachePerThreadInfoE(ptr noundef nonnull align 64 dereferenceable(25280) %2, ptr noundef null)
  br label %cond.end.i

cond.end.i:                                       ; preds = %cond.false.i, %entry
  %cond.i = phi ptr [ %call.i, %entry ], [ %call.i34, %cond.false.i ]
  call void @llvm.lifetime.start.p0(i64 8, ptr nonnull %agg.tmp.i.i)
  %3 = load ptr, ptr %m_imagecache.i, align 8
  store ptr %1, ptr %agg.tmp.i.i, align 8
  %call.i2.i5 = call noundef ptr @_ZN18OpenImageIO_v2_6_03pvt14ImageCacheImpl9find_fileENS_7ustringEPNS0_23ImageCachePerThreadInfoEPFPNS_10ImageInputEvEPKNS_9ImageSpecEb(ptr noundef nonnull align 64 dereferenceable(25280) %3, ptr noundef nonnull %agg.tmp.i.i, ptr noundef %cond.i, ptr noundef null, ptr noundef null, i1 noundef zeroext false)
  call void @llvm.lifetime.end.p0(i64 8, ptr nonnull %agg.tmp.i.i)
  %call3 = call noundef zeroext i1 @_ZN18OpenImageIO_v2_6_03pvt17TextureSystemImpl11environmentEPNS_13TextureSystem13TextureHandleEPNS2_9PerthreadERNS_15TextureOptBatchEmPKfSA_SA_iPfSB_SB_(ptr noundef nonnull align 8 dereferenceable(184) %this, ptr noundef %call.i2.i5, ptr noundef %call.i, ptr noundef nonnull align 64 dereferenceable(512) %options, i64 noundef %mask, ptr noundef %R, ptr noundef %dRdx, ptr noundef %dRdy, i32 noundef %nchannels, ptr noundef %result, ptr noundef %dresultds, ptr noundef %dresultdt)
  ret i1 %call3
}